target datalayout = "e-m:e-p270:32:32-p271:32:32-p272:64:64-i64:64-i128:128-f80:128-n8:16:32:64-S128"
target triple = "x86_64-pc-linux-gnu"

%struct.Amap_Par_t_ = type { i32, i32, i32, i32, i32, i32, float, float, i32 }
%struct.Amap_Man_t_ = type { ptr, ptr, float, float, i32, i32, ptr, ptr, ptr, ptr, ptr, ptr, ptr, ptr, [7 x i32], i32, i32, i32, ptr, ptr, ptr, ptr, ptr, ptr, ptr, ptr, i32, i32, i32, i32 }
%struct.Amap_Lib_t_ = type { ptr, ptr, ptr, ptr, ptr, ptr, ptr, ptr, ptr, i32, i32, i32, ptr, i32, i32, ptr, ptr, ptr, ptr, ptr, ptr, i32 }
%struct.Amap_Gat_t_ = type { ptr, ptr, ptr, ptr, double, ptr, ptr, i32, [0 x %struct.Amap_Pin_t_] }
%struct.Amap_Pin_t_ = type { ptr, i32, double, double, double, double, double, double, double }
%struct.Aig_Man_t_ = type { ptr, ptr, ptr, ptr, ptr, ptr, ptr, %struct.Aig_Obj_t_, i32, i32, i32, i32, i32, i32, [7 x i32], i32, ptr, i32, ptr, i32, ptr, i32, i32, i32, ptr, i32, i32, i32, i32, i32, ptr, ptr, i32, ptr, ptr, i32, ptr, ptr, i32, i32, i32, ptr, ptr, ptr, ptr, ptr, ptr, ptr, ptr, ptr, ptr, ptr, ptr, ptr, ptr, i32, ptr, ptr, ptr, ptr, i32, i64, i64, i64, ptr, ptr }
%struct.Aig_Obj_t_ = type { %union.anon, ptr, ptr, i64, i32, i32, %union.anon.0 }
%union.anon = type { ptr }
%union.anon.0 = type { ptr }
%struct.timespec = type { i64, i64 }

@.str = private unnamed_addr constant [27 x i8] c"Library is not available.\0A\00", align 1
@.str.1 = private unnamed_addr constant [5 x i8] c"%s =\00", align 1
@.str.2 = private unnamed_addr constant [14 x i8] c"Total runtime\00", align 1
@.str.3 = private unnamed_addr constant [11 x i8] c"%9.2f sec\0A\00", align 1

; Function Attrs: inlinehint nounwind uwtable
define internal i32 @Aig_ManNodeNum(ptr noundef %0) #4 {
  %2 = alloca ptr, align 8
  store ptr %0, ptr %2, align 8, !tbaa !19
  %3 = load ptr, ptr %2, align 8, !tbaa !19
  %4 = getelementptr inbounds nuw %struct.Aig_Man_t_, ptr %3, i32 0, i32 14
  %5 = getelementptr inbounds [7 x i32], ptr %4, i64 0, i64 5
  %6 = load i32, ptr %5, align 4, !tbaa !56
  %7 = load ptr, ptr %2, align 8, !tbaa !19
  %8 = getelementptr inbounds nuw %struct.Aig_Man_t_, ptr %7, i32 0, i32 14
  %9 = getelementptr inbounds [7 x i32], ptr %8, i64 0, i64 6
  %10 = load i32, ptr %9, align 8, !tbaa !56
  %11 = add nsw i32 %6, %10
  ret i32 %11
}

; Function Attrs: inlinehint nounwind uwtable
define internal i64 @Abc_Clock() #4 {
  %1 = alloca i64, align 8
  %2 = alloca %struct.timespec, align 8
  %3 = alloca i32, align 4
  %4 = alloca i64, align 8
  call void @llvm.lifetime.start.p0(i64 16, ptr %2) #9
  %5 = call i32 @clock_gettime(i32 noundef 1, ptr noundef %2) #9
  %6 = icmp slt i32 %5, 0
  br i1 %6, label %7, label %8

7:                                                ; preds = %0
  store i64 -1, ptr %1, align 8
  store i32 1, ptr %3, align 4
  br label %19

8:                                                ; preds = %0
  call void @llvm.lifetime.start.p0(i64 8, ptr %4) #9
  %9 = getelementptr inbounds nuw %struct.timespec, ptr %2, i32 0, i32 0
  %10 = load i64, ptr %9, align 8, !tbaa !60
  %11 = mul nsw i64 %10, 1000000
  store i64 %11, ptr %4, align 8, !tbaa !21
  %12 = getelementptr inbounds nuw %struct.timespec, ptr %2, i32 0, i32 1
  %13 = load i64, ptr %12, align 8, !tbaa !62
  %14 = mul nsw i64 %13, 1000000
  %15 = sdiv i64 %14, 1000000000
  %16 = load i64, ptr %4, align 8, !tbaa !21
  %17 = add nsw i64 %16, %15
  store i64 %17, ptr %4, align 8, !tbaa !21
  %18 = load i64, ptr %4, align 8, !tbaa !21
  store i64 %18, ptr %1, align 8
  store i32 1, ptr %3, align 4
  call void @llvm.lifetime.end.p0(i64 8, ptr %4) #9
  br label %19

19:                                               ; preds = %8, %7
  call void @llvm.lifetime.end.p0(i64 16, ptr %2) #9
  %20 = load i64, ptr %1, align 8
  ret i64 %20
}

; Function Attrs: nounwind uwtable
define ptr @Amap_ManTest(ptr noundef %0, ptr noundef %1) #0 {
  %3 = alloca ptr, align 8
  %4 = alloca ptr, align 8
  %5 = alloca ptr, align 8
  %6 = alloca ptr, align 8
  %7 = alloca ptr, align 8
  %8 = alloca ptr, align 8
  %9 = alloca i64, align 8
  %10 = alloca i32, align 4
  store ptr %0, ptr %4, align 8, !tbaa !19
  store ptr %1, ptr %5, align 8, !tbaa !3
  call void @llvm.lifetime.start.p0(i64 8, ptr %6) #9
  call void @llvm.lifetime.start.p0(i64 8, ptr %7) #9
  call void @llvm.lifetime.start.p0(i64 8, ptr %8) #9
  call void @llvm.lifetime.start.p0(i64 8, ptr %9) #9
  %11 = call i64 @Abc_Clock()
  store i64 %11, ptr %9, align 8, !tbaa !21
  %12 = call ptr (...) @Abc_FrameReadLibGen2()
  store ptr %12, ptr %8, align 8, !tbaa !23
  %13 = load ptr, ptr %8, align 8, !tbaa !23
  %14 = icmp eq ptr %13, null
  br i1 %14, label %15, label %17

15:                                               ; preds = %2
  %16 = call i32 (ptr, ...) @printf(ptr noundef @.str)
  store ptr null, ptr %3, align 8
  store i32 1, ptr %10, align 4
  br label %106

17:                                               ; preds = %2
  %18 = load ptr, ptr %4, align 8, !tbaa !19
  %19 = call i32 @Aig_ManNodeNum(ptr noundef %18)
  %20 = call ptr @Amap_ManStart(i32 noundef %19)
  store ptr %20, ptr %7, align 8, !tbaa !25
  %21 = load ptr, ptr %5, align 8, !tbaa !3
  %22 = load ptr, ptr %7, align 8, !tbaa !25
  %23 = getelementptr inbounds nuw %struct.Amap_Man_t_, ptr %22, i32 0, i32 0
  store ptr %21, ptr %23, align 8, !tbaa !27
  %24 = load ptr, ptr %8, align 8, !tbaa !23
  %25 = load ptr, ptr %7, align 8, !tbaa !25
  %26 = getelementptr inbounds nuw %struct.Amap_Man_t_, ptr %25, i32 0, i32 1
  store ptr %24, ptr %26, align 8, !tbaa !37
  %27 = load ptr, ptr %5, align 8, !tbaa !3
  %28 = getelementptr inbounds nuw %struct.Amap_Par_t_, ptr %27, i32 0, i32 5
  %29 = load i32, ptr %28, align 4, !tbaa !16
  %30 = icmp ne i32 %29, 0
  br i1 %30, label %31, label %32

31:                                               ; preds = %17
  br label %38

32:                                               ; preds = %17
  %33 = load ptr, ptr %8, align 8, !tbaa !23
  %34 = getelementptr inbounds nuw %struct.Amap_Lib_t_, ptr %33, i32 0, i32 7
  %35 = load ptr, ptr %34, align 8, !tbaa !38
  %36 = getelementptr inbounds nuw %struct.Amap_Gat_t_, ptr %35, i32 0, i32 4
  %37 = load double, ptr %36, align 8, !tbaa !44
  br label %38

38:                                               ; preds = %32, %31
  %39 = phi double [ 0.000000e+00, %31 ], [ %37, %32 ]
  %40 = fptrunc double %39 to float
  %41 = load ptr, ptr %7, align 8, !tbaa !25
  %42 = getelementptr inbounds nuw %struct.Amap_Man_t_, ptr %41, i32 0, i32 3
  store float %40, ptr %42, align 4, !tbaa !47
  %43 = load ptr, ptr %5, align 8, !tbaa !3
  %44 = getelementptr inbounds nuw %struct.Amap_Par_t_, ptr %43, i32 0, i32 3
  %45 = load i32, ptr %44, align 4, !tbaa !14
  %46 = icmp ne i32 %45, 0
  br i1 %46, label %47, label %52

47:                                               ; preds = %38
  %48 = load ptr, ptr %8, align 8, !tbaa !23
  %49 = getelementptr inbounds nuw %struct.Amap_Lib_t_, ptr %48, i32 0, i32 10
  %50 = load i32, ptr %49, align 4, !tbaa !48
  %51 = icmp ne i32 %50, 0
  br label %52

52:                                               ; preds = %47, %38
  %53 = phi i1 [ false, %38 ], [ %51, %47 ]
  %54 = zext i1 %53 to i32
  %55 = load ptr, ptr %7, align 8, !tbaa !25
  %56 = getelementptr inbounds nuw %struct.Amap_Man_t_, ptr %55, i32 0, i32 5
  store i32 %54, ptr %56, align 4, !tbaa !49
  %57 = load ptr, ptr %5, align 8, !tbaa !3
  %58 = getelementptr inbounds nuw %struct.Amap_Par_t_, ptr %57, i32 0, i32 4
  %59 = load i32, ptr %58, align 4, !tbaa !15
  %60 = icmp ne i32 %59, 0
  br i1 %60, label %61, label %66

61:                                               ; preds = %52
  %62 = load ptr, ptr %8, align 8, !tbaa !23
  %63 = getelementptr inbounds nuw %struct.Amap_Lib_t_, ptr %62, i32 0, i32 9
  %64 = load i32, ptr %63, align 8, !tbaa !50
  %65 = icmp ne i32 %64, 0
  br label %66

66:                                               ; preds = %61, %52
  %67 = phi i1 [ false, %52 ], [ %65, %61 ]
  %68 = zext i1 %67 to i32
  %69 = load ptr, ptr %7, align 8, !tbaa !25
  %70 = getelementptr inbounds nuw %struct.Amap_Man_t_, ptr %69, i32 0, i32 4
  store i32 %68, ptr %70, align 8, !tbaa !51
  %71 = load ptr, ptr %8, align 8, !tbaa !23
  %72 = getelementptr inbounds nuw %struct.Amap_Lib_t_, ptr %71, i32 0, i32 13
  %73 = load i32, ptr %72, align 8, !tbaa !52
  %74 = mul nsw i32 2, %73
  %75 = sext i32 %74 to i64
  %76 = call noalias ptr @calloc(i64 noundef %75, i64 noundef 8) #10
  %77 = load ptr, ptr %7, align 8, !tbaa !25
  %78 = getelementptr inbounds nuw %struct.Amap_Man_t_, ptr %77, i32 0, i32 20
  store ptr %76, ptr %78, align 8, !tbaa !53
  %79 = load ptr, ptr %8, align 8, !tbaa !23
  %80 = getelementptr inbounds nuw %struct.Amap_Lib_t_, ptr %79, i32 0, i32 13
  %81 = load i32, ptr %80, align 8, !tbaa !52
  %82 = mul nsw i32 2, %81
  %83 = sext i32 %82 to i64
  %84 = call noalias ptr @calloc(i64 noundef %83, i64 noundef 4) #10
  %85 = load ptr, ptr %7, align 8, !tbaa !25
  %86 = getelementptr inbounds nuw %struct.Amap_Man_t_, ptr %85, i32 0, i32 19
  store ptr %84, ptr %86, align 8, !tbaa !54
  %87 = load ptr, ptr %7, align 8, !tbaa !25
  %88 = load ptr, ptr %4, align 8, !tbaa !19
  call void @Amap_ManCreate(ptr noundef %87, ptr noundef %88)
  %89 = load ptr, ptr %7, align 8, !tbaa !25
  call void @Amap_ManMap(ptr noundef %89)
  store ptr null, ptr %6, align 8, !tbaa !55
  %90 = load ptr, ptr %7, align 8, !tbaa !25
  %91 = call ptr @Amap_ManProduceMapped(ptr noundef %90)
  store ptr %91, ptr %6, align 8, !tbaa !55
  %92 = load ptr, ptr %7, align 8, !tbaa !25
  call void @Amap_ManStop(ptr noundef %92)
  %93 = load ptr, ptr %5, align 8, !tbaa !3
  %94 = getelementptr inbounds nuw %struct.Amap_Par_t_, ptr %93, i32 0, i32 8
  %95 = load i32, ptr %94, align 4, !tbaa !18
  %96 = icmp ne i32 %95, 0
  br i1 %96, label %97, label %104

97:                                               ; preds = %66
  call void (i32, ptr, ...) @Abc_Print(i32 noundef 1, ptr noundef @.str.1, ptr noundef @.str.2)
  %98 = call i64 @Abc_Clock()
  %99 = load i64, ptr %9, align 8, !tbaa !21
  %100 = sub nsw i64 %98, %99
  %101 = sitofp i64 %100 to double
  %102 = fmul double 1.000000e+00, %101
  %103 = fdiv double %102, 1.000000e+06
  call void (i32, ptr, ...) @Abc_Print(i32 noundef 1, ptr noundef @.str.3, double noundef %103)
  br label %104

104:                                              ; preds = %97, %66
  %105 = load ptr, ptr %6, align 8, !tbaa !55
  store ptr %105, ptr %3, align 8
  store i32 1, ptr %10, align 4
  br label %106

106:                                              ; preds = %104, %15
  call void @llvm.lifetime.end.p0(i64 8, ptr %9) #9
  call void @llvm.lifetime.end.p0(i64 8, ptr %8) #9
  call void @llvm.lifetime.end.p0(i64 8, ptr %7) #9
  call void @llvm.lifetime.end.p0(i64 8, ptr %6) #9
  %107 = load ptr, ptr %3, align 8
  ret ptr %107
}