; Function Attrs: nounwind uwtable
define ptr @Amap_ManTest(ptr noundef %0, ptr noundef %1) local_unnamed_addr #1 {
  %3 = alloca %struct.timespec, align 8
  %4 = alloca %struct.timespec, align 8
  call void @llvm.lifetime.start.p0(i64 16, ptr nonnull %4) #12
  %5 = call i32 @clock_gettime(i32 noundef 1, ptr noundef nonnull %4) #12
  %6 = icmp slt i32 %5, 0
  br i1 %6, label %Abc_Clock.exit, label %7

7:                                                ; preds = %2
  %8 = load i64, ptr %4, align 8, !tbaa !16
  %.neg34 = mul i64 %8, -1000000
  %9 = getelementptr inbounds nuw i8, ptr %4, i64 8
  %10 = load i64, ptr %9, align 8, !tbaa !19
  %.neg = sdiv i64 %10, -1000
  %.neg35 = add i64 %.neg, %.neg34
  br label %Abc_Clock.exit

Abc_Clock.exit:                                   ; preds = %2, %7
  %.0.i.neg = phi i64 [ %.neg35, %7 ], [ 1, %2 ]
  call void @llvm.lifetime.end.p0(i64 16, ptr nonnull %4) #12
  %11 = call ptr (...) @Abc_FrameReadLibGen2() #12
  %12 = icmp eq ptr %11, null
  br i1 %12, label %13, label %14

13:                                               ; preds = %Abc_Clock.exit
  %puts = call i32 @puts(ptr nonnull dereferenceable(1) @str)
  br label %75

14:                                               ; preds = %Abc_Clock.exit
  %15 = getelementptr i8, ptr %0, i64 148
  %.val = load i32, ptr %15, align 4, !tbaa !20
  %16 = getelementptr i8, ptr %0, i64 152
  %.val31 = load i32, ptr %16, align 8, !tbaa !20
  %17 = add nsw i32 %.val31, %.val
  %18 = call ptr @Amap_ManStart(i32 noundef %17) #12
  store ptr %1, ptr %18, align 8, !tbaa !21
  %19 = getelementptr inbounds nuw i8, ptr %18, i64 8
  store ptr %11, ptr %19, align 8, !tbaa !34
  %20 = getelementptr inbounds nuw i8, ptr %1, i64 20
  %21 = load i32, ptr %20, align 4, !tbaa !13
  %.not = icmp eq i32 %21, 0
  br i1 %.not, label %22, label %28

22:                                               ; preds = %14
  %23 = getelementptr inbounds nuw i8, ptr %11, i64 56
  %24 = load ptr, ptr %23, align 8, !tbaa !35
  %25 = getelementptr inbounds nuw i8, ptr %24, i64 32
  %26 = load double, ptr %25, align 8, !tbaa !41
  %27 = fptrunc double %26 to float
  br label %28

28:                                               ; preds = %14, %22
  %29 = phi float [ %27, %22 ], [ 0.000000e+00, %14 ]
  %30 = getelementptr inbounds nuw i8, ptr %18, i64 20
  store float %29, ptr %30, align 4, !tbaa !44
  %31 = getelementptr inbounds nuw i8, ptr %1, i64 12
  %32 = load i32, ptr %31, align 4, !tbaa !11
  %.not28 = icmp eq i32 %32, 0
  br i1 %.not28, label %38, label %33

33:                                               ; preds = %28
  %34 = getelementptr inbounds nuw i8, ptr %11, i64 76
  %35 = load i32, ptr %34, align 4, !tbaa !45
  %36 = icmp ne i32 %35, 0
  %37 = zext i1 %36 to i32
  br label %38

38:                                               ; preds = %33, %28
  %39 = phi i32 [ 0, %28 ], [ %37, %33 ]
  %40 = getelementptr inbounds nuw i8, ptr %18, i64 28
  store i32 %39, ptr %40, align 4, !tbaa !46
  %41 = getelementptr inbounds nuw i8, ptr %1, i64 16
  %42 = load i32, ptr %41, align 4, !tbaa !12
  %.not29 = icmp eq i32 %42, 0
  br i1 %.not29, label %48, label %43

43:                                               ; preds = %38
  %44 = getelementptr inbounds nuw i8, ptr %11, i64 72
  %45 = load i32, ptr %44, align 8, !tbaa !47
  %46 = icmp ne i32 %45, 0
  %47 = zext i1 %46 to i32
  br label %48

48:                                               ; preds = %43, %38
  %49 = phi i32 [ 0, %38 ], [ %47, %43 ]
  %50 = getelementptr inbounds nuw i8, ptr %18, i64 24
  store i32 %49, ptr %50, align 8, !tbaa !48
  %51 = getelementptr inbounds nuw i8, ptr %11, i64 96
  %52 = load i32, ptr %51, align 8, !tbaa !49
  %53 = shl nsw i32 %52, 1
  %54 = sext i32 %53 to i64
  %55 = call noalias ptr @calloc(i64 noundef %54, i64 noundef 8) #13
  %56 = getelementptr inbounds nuw i8, ptr %18, i64 152
  store ptr %55, ptr %56, align 8, !tbaa !50
  %57 = call noalias ptr @calloc(i64 noundef %54, i64 noundef 4) #13
  %58 = getelementptr inbounds nuw i8, ptr %18, i64 144
  store ptr %57, ptr %58, align 8, !tbaa !51
  call void @Amap_ManCreate(ptr noundef nonnull %18, ptr noundef nonnull %0) #12
  call void @Amap_ManMap(ptr noundef nonnull %18) #12
  %59 = call ptr @Amap_ManProduceMapped(ptr noundef nonnull %18) #12
  call void @Amap_ManStop(ptr noundef nonnull %18) #12
  %60 = getelementptr inbounds nuw i8, ptr %1, i64 32
  %61 = load i32, ptr %60, align 4, !tbaa !15
  %.not30 = icmp eq i32 %61, 0
  br i1 %.not30, label %75, label %62

62:                                               ; preds = %48
  call void (i32, ptr, ...) @Abc_Print(i32 poison, ptr noundef nonnull @.str.1, ptr noundef nonnull @.str.2)
  call void @llvm.lifetime.start.p0(i64 16, ptr nonnull %3) #12
  %63 = call i32 @clock_gettime(i32 noundef 1, ptr noundef nonnull %3) #12
  %64 = icmp slt i32 %63, 0
  br i1 %64, label %Abc_Clock.exit33, label %65

65:                                               ; preds = %62
  %66 = load i64, ptr %3, align 8, !tbaa !16
  %67 = mul nsw i64 %66, 1000000
  %68 = getelementptr inbounds nuw i8, ptr %3, i64 8
  %69 = load i64, ptr %68, align 8, !tbaa !19
  %70 = sdiv i64 %69, 1000
  %71 = add nsw i64 %70, %67
  br label %Abc_Clock.exit33

Abc_Clock.exit33:                                 ; preds = %62, %65
  %.0.i32 = phi i64 [ %71, %65 ], [ -1, %62 ]
  call void @llvm.lifetime.end.p0(i64 16, ptr nonnull %3) #12
  %72 = add i64 %.0.i32, %.0.i.neg
  %73 = sitofp i64 %72 to double
  %74 = fdiv double %73, 1.000000e+06
  call void (i32, ptr, ...) @Abc_Print(i32 poison, ptr noundef nonnull @.str.3, double noundef %74)
  br label %75

75:                                               ; preds = %48, %Abc_Clock.exit33, %13
  %.0 = phi ptr [ null, %13 ], [ %59, %Abc_Clock.exit33 ], [ %59, %48 ]
  ret ptr %.0
}